target datalayout = "e-m:e-p270:32:32-p271:32:32-p272:64:64-i64:64-i128:128-f80:128-n8:16:32:64-S128"
target triple = "x86_64-pc-linux-gnu"

%struct.Agobj_s = type { %struct.Agtag_s, ptr }
%struct.Agtag_s = type { i32, i64 }
%struct.Agraphinfo_t = type { %struct.Agrec_s, ptr, ptr, %struct.boxf, [4 x %struct.pointf_s], i8, i8, i8, i8, i32, double, double, i16, ptr, ptr, ptr, ptr, i32, ptr, ptr, ptr, ptr, i16, i16, i32, ptr, ptr, ptr, ptr, ptr, i32, ptr, ptr, %struct.nlist_t, ptr, ptr, i32, i32, i8, i8, i32, i32, i32, ptr, ptr, ptr, ptr, i8, i8, i8, i8, i8 }
%struct.Agrec_s = type { ptr, ptr }
%struct.boxf = type { %struct.pointf_s, %struct.pointf_s }
%struct.pointf_s = type { double, double }
%struct.nlist_t = type { ptr, i64 }
%struct.rank_t = type { i32, ptr, i32, ptr, double, double, double, double, i8, i8, i64, ptr }

@G_margin = external global ptr, align 8

; Function Attrs: nounwind uwtable
define internal i32 @clust_ht(ptr noundef %0) #0 {
  %2 = alloca ptr, align 8
  %3 = alloca i32, align 4
  %4 = alloca double, align 8
  %5 = alloca double, align 8
  %6 = alloca ptr, align 8
  %7 = alloca ptr, align 8
  %8 = alloca i32, align 4
  %9 = alloca i32, align 4
  store ptr %0, ptr %2, align 8, !tbaa !3
  call void @llvm.lifetime.start.p0(i64 4, ptr %3) #11
  call void @llvm.lifetime.start.p0(i64 8, ptr %4) #11
  call void @llvm.lifetime.start.p0(i64 8, ptr %5) #11
  call void @llvm.lifetime.start.p0(i64 8, ptr %6) #11
  call void @llvm.lifetime.start.p0(i64 8, ptr %7) #11
  %10 = load ptr, ptr %2, align 8, !tbaa !3
  %11 = call ptr @dot_root(ptr noundef %10)
  %12 = getelementptr inbounds nuw %struct.Agobj_s, ptr %11, i32 0, i32 1
  %13 = load ptr, ptr %12, align 8, !tbaa !8
  %14 = getelementptr inbounds nuw %struct.Agraphinfo_t, ptr %13, i32 0, i32 28
  %15 = load ptr, ptr %14, align 8, !tbaa !37
  store ptr %15, ptr %7, align 8, !tbaa !38
  call void @llvm.lifetime.start.p0(i64 4, ptr %8) #11
  call void @llvm.lifetime.start.p0(i64 4, ptr %9) #11
  store i32 0, ptr %9, align 4, !tbaa !36
  %16 = load ptr, ptr %2, align 8, !tbaa !3
  %17 = load ptr, ptr %2, align 8, !tbaa !3
  %18 = call ptr @dot_root(ptr noundef %17)
  %19 = icmp eq ptr %16, %18
  br i1 %19, label %20, label %21

20:                                               ; preds = %1
  store i32 8, ptr %8, align 4, !tbaa !36
  br label %25

21:                                               ; preds = %1
  %22 = load ptr, ptr %2, align 8, !tbaa !3
  %23 = load ptr, ptr @G_margin, align 8, !tbaa !75
  %24 = call i32 @late_int(ptr noundef %22, ptr noundef %23, i32 noundef 8, i32 noundef 0)
  store i32 %24, ptr %8, align 4, !tbaa !36
  br label %25

25:                                               ; preds = %21, %20
  %26 = load ptr, ptr %2, align 8, !tbaa !3
  %27 = getelementptr inbounds nuw %struct.Agobj_s, ptr %26, i32 0, i32 1
  %28 = load ptr, ptr %27, align 8, !tbaa !8
  %29 = getelementptr inbounds nuw %struct.Agraphinfo_t, ptr %28, i32 0, i32 10
  %30 = load double, ptr %29, align 8, !tbaa !79
  store double %30, ptr %4, align 8, !tbaa !39
  %31 = load ptr, ptr %2, align 8, !tbaa !3
  %32 = getelementptr inbounds nuw %struct.Agobj_s, ptr %31, i32 0, i32 1
  %33 = load ptr, ptr %32, align 8, !tbaa !8
  %34 = getelementptr inbounds nuw %struct.Agraphinfo_t, ptr %33, i32 0, i32 11
  %35 = load double, ptr %34, align 8, !tbaa !78
  store double %35, ptr %5, align 8, !tbaa !39
  store i32 1, ptr %3, align 4, !tbaa !36
  br label %36

36:                                               ; preds = %130, %25
  %37 = load i32, ptr %3, align 4, !tbaa !36
  %38 = load ptr, ptr %2, align 8, !tbaa !3
  %39 = getelementptr inbounds nuw %struct.Agobj_s, ptr %38, i32 0, i32 1
  %40 = load ptr, ptr %39, align 8, !tbaa !8
  %41 = getelementptr inbounds nuw %struct.Agraphinfo_t, ptr %40, i32 0, i32 24
  %42 = load i32, ptr %41, align 4, !tbaa !173
  %43 = icmp sle i32 %37, %42
  br i1 %43, label %44, label %133

44:                                               ; preds = %36
  %45 = load ptr, ptr %2, align 8, !tbaa !3
  %46 = getelementptr inbounds nuw %struct.Agobj_s, ptr %45, i32 0, i32 1
  %47 = load ptr, ptr %46, align 8, !tbaa !8
  %48 = getelementptr inbounds nuw %struct.Agraphinfo_t, ptr %47, i32 0, i32 25
  %49 = load ptr, ptr %48, align 8, !tbaa !177
  %50 = load i32, ptr %3, align 4, !tbaa !36
  %51 = sext i32 %50 to i64
  %52 = getelementptr inbounds ptr, ptr %49, i64 %51
  %53 = load ptr, ptr %52, align 8, !tbaa !3
  store ptr %53, ptr %6, align 8, !tbaa !3
  %54 = load ptr, ptr %6, align 8, !tbaa !3
  %55 = call i32 @clust_ht(ptr noundef %54)
  %56 = load i32, ptr %9, align 4, !tbaa !36
  %57 = or i32 %56, %55
  store i32 %57, ptr %9, align 4, !tbaa !36
  %58 = load ptr, ptr %6, align 8, !tbaa !3
  %59 = getelementptr inbounds nuw %struct.Agobj_s, ptr %58, i32 0, i32 1
  %60 = load ptr, ptr %59, align 8, !tbaa !8
  %61 = getelementptr inbounds nuw %struct.Agraphinfo_t, ptr %60, i32 0, i32 37
  %62 = load i32, ptr %61, align 4, !tbaa !41
  %63 = load ptr, ptr %2, align 8, !tbaa !3
  %64 = getelementptr inbounds nuw %struct.Agobj_s, ptr %63, i32 0, i32 1
  %65 = load ptr, ptr %64, align 8, !tbaa !8
  %66 = getelementptr inbounds nuw %struct.Agraphinfo_t, ptr %65, i32 0, i32 37
  %67 = load i32, ptr %66, align 4, !tbaa !41
  %68 = icmp eq i32 %62, %67
  br i1 %68, label %69, label %93

69:                                               ; preds = %44
  %70 = load double, ptr %4, align 8, !tbaa !39
  %71 = load ptr, ptr %6, align 8, !tbaa !3
  %72 = getelementptr inbounds nuw %struct.Agobj_s, ptr %71, i32 0, i32 1
  %73 = load ptr, ptr %72, align 8, !tbaa !8
  %74 = getelementptr inbounds nuw %struct.Agraphinfo_t, ptr %73, i32 0, i32 10
  %75 = load double, ptr %74, align 8, !tbaa !79
  %76 = load i32, ptr %8, align 4, !tbaa !36
  %77 = sitofp i32 %76 to double
  %78 = fadd double %75, %77
  %79 = fcmp ogt double %70, %78
  br i1 %79, label %80, label %82

80:                                               ; preds = %69
  %81 = load double, ptr %4, align 8, !tbaa !39
  br label %91

82:                                               ; preds = %69
  %83 = load ptr, ptr %6, align 8, !tbaa !3
  %84 = getelementptr inbounds nuw %struct.Agobj_s, ptr %83, i32 0, i32 1
  %85 = load ptr, ptr %84, align 8, !tbaa !8
  %86 = getelementptr inbounds nuw %struct.Agraphinfo_t, ptr %85, i32 0, i32 10
  %87 = load double, ptr %86, align 8, !tbaa !79
  %88 = load i32, ptr %8, align 4, !tbaa !36
  %89 = sitofp i32 %88 to double
  %90 = fadd double %87, %89
  br label %91

91:                                               ; preds = %82, %80
  %92 = phi double [ %81, %80 ], [ %90, %82 ]
  store double %92, ptr %4, align 8, !tbaa !39
  br label %93

93:                                               ; preds = %91, %44
  %94 = load ptr, ptr %6, align 8, !tbaa !3
  %95 = getelementptr inbounds nuw %struct.Agobj_s, ptr %94, i32 0, i32 1
  %96 = load ptr, ptr %95, align 8, !tbaa !8
  %97 = getelementptr inbounds nuw %struct.Agraphinfo_t, ptr %96, i32 0, i32 36
  %98 = load i32, ptr %97, align 8, !tbaa !40
  %99 = load ptr, ptr %2, align 8, !tbaa !3
  %100 = getelementptr inbounds nuw %struct.Agobj_s, ptr %99, i32 0, i32 1
  %101 = load ptr, ptr %100, align 8, !tbaa !8
  %102 = getelementptr inbounds nuw %struct.Agraphinfo_t, ptr %101, i32 0, i32 36
  %103 = load i32, ptr %102, align 8, !tbaa !40
  %104 = icmp eq i32 %98, %103
  br i1 %104, label %105, label %129

105:                                              ; preds = %93
  %106 = load double, ptr %5, align 8, !tbaa !39
  %107 = load ptr, ptr %6, align 8, !tbaa !3
  %108 = getelementptr inbounds nuw %struct.Agobj_s, ptr %107, i32 0, i32 1
  %109 = load ptr, ptr %108, align 8, !tbaa !8
  %110 = getelementptr inbounds nuw %struct.Agraphinfo_t, ptr %109, i32 0, i32 11
  %111 = load double, ptr %110, align 8, !tbaa !78
  %112 = load i32, ptr %8, align 4, !tbaa !36
  %113 = sitofp i32 %112 to double
  %114 = fadd double %111, %113
  %115 = fcmp ogt double %106, %114
  br i1 %115, label %116, label %118

116:                                              ; preds = %105
  %117 = load double, ptr %5, align 8, !tbaa !39
  br label %127

118:                                              ; preds = %105
  %119 = load ptr, ptr %6, align 8, !tbaa !3
  %120 = getelementptr inbounds nuw %struct.Agobj_s, ptr %119, i32 0, i32 1
  %121 = load ptr, ptr %120, align 8, !tbaa !8
  %122 = getelementptr inbounds nuw %struct.Agraphinfo_t, ptr %121, i32 0, i32 11
  %123 = load double, ptr %122, align 8, !tbaa !78
  %124 = load i32, ptr %8, align 4, !tbaa !36
  %125 = sitofp i32 %124 to double
  %126 = fadd double %123, %125
  br label %127

127:                                              ; preds = %118, %116
  %128 = phi double [ %117, %116 ], [ %126, %118 ]
  store double %128, ptr %5, align 8, !tbaa !39
  br label %129

129:                                              ; preds = %127, %93
  br label %130

130:                                              ; preds = %129
  %131 = load i32, ptr %3, align 4, !tbaa !36
  %132 = add nsw i32 %131, 1
  store i32 %132, ptr %3, align 4, !tbaa !36
  br label %36, !llvm.loop !190

133:                                              ; preds = %36
  %134 = load ptr, ptr %2, align 8, !tbaa !3
  %135 = load ptr, ptr %2, align 8, !tbaa !3
  %136 = call ptr @dot_root(ptr noundef %135)
  %137 = icmp ne ptr %134, %136
  br i1 %137, label %138, label %175

138:                                              ; preds = %133
  %139 = load ptr, ptr %2, align 8, !tbaa !3
  %140 = getelementptr inbounds nuw %struct.Agobj_s, ptr %139, i32 0, i32 1
  %141 = load ptr, ptr %140, align 8, !tbaa !8
  %142 = getelementptr inbounds nuw %struct.Agraphinfo_t, ptr %141, i32 0, i32 2
  %143 = load ptr, ptr %142, align 8, !tbaa !188
  %144 = icmp ne ptr %143, null
  br i1 %144, label %145, label %175

145:                                              ; preds = %138
  store i32 1, ptr %9, align 4, !tbaa !36
  %146 = load ptr, ptr %2, align 8, !tbaa !3
  %147 = call ptr @agroot(ptr noundef %146)
  %148 = getelementptr inbounds nuw %struct.Agobj_s, ptr %147, i32 0, i32 1
  %149 = load ptr, ptr %148, align 8, !tbaa !8
  %150 = getelementptr inbounds nuw %struct.Agraphinfo_t, ptr %149, i32 0, i32 9
  %151 = load i32, ptr %150, align 4, !tbaa !85
  %152 = and i32 %151, 3
  %153 = and i32 %152, 1
  %154 = icmp ne i32 %153, 0
  br i1 %154, label %174, label %155

155:                                              ; preds = %145
  %156 = load ptr, ptr %2, align 8, !tbaa !3
  %157 = getelementptr inbounds nuw %struct.Agobj_s, ptr %156, i32 0, i32 1
  %158 = load ptr, ptr %157, align 8, !tbaa !8
  %159 = getelementptr inbounds nuw %struct.Agraphinfo_t, ptr %158, i32 0, i32 4
  %160 = getelementptr inbounds [4 x %struct.pointf_s], ptr %159, i64 0, i64 0
  %161 = getelementptr inbounds nuw %struct.pointf_s, ptr %160, i32 0, i32 1
  %162 = load double, ptr %161, align 8, !tbaa !112
  %163 = load double, ptr %4, align 8, !tbaa !39
  %164 = fadd double %163, %162
  store double %164, ptr %4, align 8, !tbaa !39
  %165 = load ptr, ptr %2, align 8, !tbaa !3
  %166 = getelementptr inbounds nuw %struct.Agobj_s, ptr %165, i32 0, i32 1
  %167 = load ptr, ptr %166, align 8, !tbaa !8
  %168 = getelementptr inbounds nuw %struct.Agraphinfo_t, ptr %167, i32 0, i32 4
  %169 = getelementptr inbounds [4 x %struct.pointf_s], ptr %168, i64 0, i64 2
  %170 = getelementptr inbounds nuw %struct.pointf_s, ptr %169, i32 0, i32 1
  %171 = load double, ptr %170, align 8, !tbaa !112
  %172 = load double, ptr %5, align 8, !tbaa !39
  %173 = fadd double %172, %171
  store double %173, ptr %5, align 8, !tbaa !39
  br label %174

174:                                              ; preds = %155, %145
  br label %175

175:                                              ; preds = %174, %138, %133
  %176 = load double, ptr %4, align 8, !tbaa !39
  %177 = load ptr, ptr %2, align 8, !tbaa !3
  %178 = getelementptr inbounds nuw %struct.Agobj_s, ptr %177, i32 0, i32 1
  %179 = load ptr, ptr %178, align 8, !tbaa !8
  %180 = getelementptr inbounds nuw %struct.Agraphinfo_t, ptr %179, i32 0, i32 10
  store double %176, ptr %180, align 8, !tbaa !79
  %181 = load double, ptr %5, align 8, !tbaa !39
  %182 = load ptr, ptr %2, align 8, !tbaa !3
  %183 = getelementptr inbounds nuw %struct.Agobj_s, ptr %182, i32 0, i32 1
  %184 = load ptr, ptr %183, align 8, !tbaa !8
  %185 = getelementptr inbounds nuw %struct.Agraphinfo_t, ptr %184, i32 0, i32 11
  store double %181, ptr %185, align 8, !tbaa !78
  %186 = load ptr, ptr %2, align 8, !tbaa !3
  %187 = load ptr, ptr %2, align 8, !tbaa !3
  %188 = call ptr @dot_root(ptr noundef %187)
  %189 = icmp ne ptr %186, %188
  br i1 %189, label %190, label %263

190:                                              ; preds = %175
  %191 = load ptr, ptr %7, align 8, !tbaa !38
  %192 = load ptr, ptr %2, align 8, !tbaa !3
  %193 = getelementptr inbounds nuw %struct.Agobj_s, ptr %192, i32 0, i32 1
  %194 = load ptr, ptr %193, align 8, !tbaa !8
  %195 = getelementptr inbounds nuw %struct.Agraphinfo_t, ptr %194, i32 0, i32 36
  %196 = load i32, ptr %195, align 8, !tbaa !40
  %197 = sext i32 %196 to i64
  %198 = getelementptr inbounds %struct.rank_t, ptr %191, i64 %197
  %199 = getelementptr inbounds nuw %struct.rank_t, ptr %198, i32 0, i32 5
  %200 = load double, ptr %199, align 8, !tbaa !71
  %201 = load double, ptr %5, align 8, !tbaa !39
  %202 = fcmp ogt double %200, %201
  br i1 %202, label %203, label %214

203:                                              ; preds = %190
  %204 = load ptr, ptr %7, align 8, !tbaa !38
  %205 = load ptr, ptr %2, align 8, !tbaa !3
  %206 = getelementptr inbounds nuw %struct.Agobj_s, ptr %205, i32 0, i32 1
  %207 = load ptr, ptr %206, align 8, !tbaa !8
  %208 = getelementptr inbounds nuw %struct.Agraphinfo_t, ptr %207, i32 0, i32 36
  %209 = load i32, ptr %208, align 8, !tbaa !40
  %210 = sext i32 %209 to i64
  %211 = getelementptr inbounds %struct.rank_t, ptr %204, i64 %210
  %212 = getelementptr inbounds nuw %struct.rank_t, ptr %211, i32 0, i32 5
  %213 = load double, ptr %212, align 8, !tbaa !71
  br label %216

214:                                              ; preds = %190
  %215 = load double, ptr %5, align 8, !tbaa !39
  br label %216

216:                                              ; preds = %214, %203
  %217 = phi double [ %213, %203 ], [ %215, %214 ]
  %218 = load ptr, ptr %7, align 8, !tbaa !38
  %219 = load ptr, ptr %2, align 8, !tbaa !3
  %220 = getelementptr inbounds nuw %struct.Agobj_s, ptr %219, i32 0, i32 1
  %221 = load ptr, ptr %220, align 8, !tbaa !8
  %222 = getelementptr inbounds nuw %struct.Agraphinfo_t, ptr %221, i32 0, i32 36
  %223 = load i32, ptr %222, align 8, !tbaa !40
  %224 = sext i32 %223 to i64
  %225 = getelementptr inbounds %struct.rank_t, ptr %218, i64 %224
  %226 = getelementptr inbounds nuw %struct.rank_t, ptr %225, i32 0, i32 5
  store double %217, ptr %226, align 8, !tbaa !71
  %227 = load ptr, ptr %7, align 8, !tbaa !38
  %228 = load ptr, ptr %2, align 8, !tbaa !3
  %229 = getelementptr inbounds nuw %struct.Agobj_s, ptr %228, i32 0, i32 1
  %230 = load ptr, ptr %229, align 8, !tbaa !8
  %231 = getelementptr inbounds nuw %struct.Agraphinfo_t, ptr %230, i32 0, i32 37
  %232 = load i32, ptr %231, align 4, !tbaa !41
  %233 = sext i32 %232 to i64
  %234 = getelementptr inbounds %struct.rank_t, ptr %227, i64 %233
  %235 = getelementptr inbounds nuw %struct.rank_t, ptr %234, i32 0, i32 4
  %236 = load double, ptr %235, align 8, !tbaa !73
  %237 = load double, ptr %4, align 8, !tbaa !39
  %238 = fcmp ogt double %236, %237
  br i1 %238, label %239, label %250

239:                                              ; preds = %216
  %240 = load ptr, ptr %7, align 8, !tbaa !38
  %241 = load ptr, ptr %2, align 8, !tbaa !3
  %242 = getelementptr inbounds nuw %struct.Agobj_s, ptr %241, i32 0, i32 1
  %243 = load ptr, ptr %242, align 8, !tbaa !8
  %244 = getelementptr inbounds nuw %struct.Agraphinfo_t, ptr %243, i32 0, i32 37
  %245 = load i32, ptr %244, align 4, !tbaa !41
  %246 = sext i32 %245 to i64
  %247 = getelementptr inbounds %struct.rank_t, ptr %240, i64 %246
  %248 = getelementptr inbounds nuw %struct.rank_t, ptr %247, i32 0, i32 4
  %249 = load double, ptr %248, align 8, !tbaa !73
  br label %252

250:                                              ; preds = %216
  %251 = load double, ptr %4, align 8, !tbaa !39
  br label %252

252:                                              ; preds = %250, %239
  %253 = phi double [ %249, %239 ], [ %251, %250 ]
  %254 = load ptr, ptr %7, align 8, !tbaa !38
  %255 = load ptr, ptr %2, align 8, !tbaa !3
  %256 = getelementptr inbounds nuw %struct.Agobj_s, ptr %255, i32 0, i32 1
  %257 = load ptr, ptr %256, align 8, !tbaa !8
  %258 = getelementptr inbounds nuw %struct.Agraphinfo_t, ptr %257, i32 0, i32 37
  %259 = load i32, ptr %258, align 4, !tbaa !41
  %260 = sext i32 %259 to i64
  %261 = getelementptr inbounds %struct.rank_t, ptr %254, i64 %260
  %262 = getelementptr inbounds nuw %struct.rank_t, ptr %261, i32 0, i32 4
  store double %253, ptr %262, align 8, !tbaa !73
  br label %263

263:                                              ; preds = %252, %175
  %264 = load i32, ptr %9, align 4, !tbaa !36
  call void @llvm.lifetime.end.p0(i64 4, ptr %9) #11
  call void @llvm.lifetime.end.p0(i64 4, ptr %8) #11
  call void @llvm.lifetime.end.p0(i64 8, ptr %7) #11
  call void @llvm.lifetime.end.p0(i64 8, ptr %6) #11
  call void @llvm.lifetime.end.p0(i64 8, ptr %5) #11
  call void @llvm.lifetime.end.p0(i64 8, ptr %4) #11
  call void @llvm.lifetime.end.p0(i64 4, ptr %3) #11
  ret i32 %264
}