; Function Attrs: nounwind uwtable
define internal fastcc range(i32 0, 2) i32 @clust_ht(ptr noundef %0) unnamed_addr #0 {
  %2 = tail call ptr @dot_root(ptr noundef %0) #15
  %3 = getelementptr inbounds nuw i8, ptr %2, i64 16
  %4 = load ptr, ptr %3, align 8, !tbaa !3
  %5 = getelementptr inbounds nuw i8, ptr %4, i64 264
  %6 = load ptr, ptr %5, align 8, !tbaa !37
  %7 = tail call ptr @dot_root(ptr noundef %0) #15
  %8 = icmp eq ptr %0, %7
  br i1 %8, label %13, label %9

9:                                                ; preds = %1
  %10 = load ptr, ptr @G_margin, align 8, !tbaa !148
  %11 = tail call i32 @late_int(ptr noundef %0, ptr noundef %10, i32 noundef 8, i32 noundef 0) #15
  %12 = sitofp i32 %11 to double
  br label %13

13:                                               ; preds = %1, %9
  %.059 = phi double [ %12, %9 ], [ 8.000000e+00, %1 ]
  %14 = getelementptr inbounds nuw i8, ptr %0, i64 16
  %15 = load ptr, ptr %14, align 8, !tbaa !3
  %16 = getelementptr inbounds nuw i8, ptr %15, i64 136
  %17 = load double, ptr %16, align 8, !tbaa !151
  %18 = getelementptr inbounds nuw i8, ptr %15, i64 144
  %19 = load double, ptr %18, align 8, !tbaa !150
  %20 = getelementptr inbounds nuw i8, ptr %15, i64 236
  %21 = load i32, ptr %20, align 4, !tbaa !112
  %.not76 = icmp slt i32 %21, 1
  br i1 %.not76, label %._crit_edge, label %.lr.ph

.lr.ph:                                           ; preds = %13, %53
  %indvars.iv = phi i64 [ %indvars.iv.next, %53 ], [ 1, %13 ]
  %22 = phi ptr [ %33, %53 ], [ %15, %13 ]
  %.080 = phi i32 [ %28, %53 ], [ 0, %13 ]
  %.06178 = phi double [ %.162, %53 ], [ %17, %13 ]
  %.06377 = phi double [ %.164, %53 ], [ %19, %13 ]
  %23 = getelementptr inbounds nuw i8, ptr %22, i64 240
  %24 = load ptr, ptr %23, align 8, !tbaa !165
  %25 = getelementptr inbounds nuw ptr, ptr %24, i64 %indvars.iv
  %26 = load ptr, ptr %25, align 8, !tbaa !166
  %27 = tail call fastcc i32 @clust_ht(ptr noundef %26)
  %28 = or i32 %27, %.080
  %29 = getelementptr inbounds nuw i8, ptr %26, i64 16
  %30 = load ptr, ptr %29, align 8, !tbaa !3
  %31 = getelementptr inbounds nuw i8, ptr %30, i64 340
  %32 = load i32, ptr %31, align 4, !tbaa !36
  %33 = load ptr, ptr %14, align 8, !tbaa !3
  %34 = getelementptr inbounds nuw i8, ptr %33, i64 340
  %35 = load i32, ptr %34, align 4, !tbaa !36
  %36 = icmp eq i32 %32, %35
  br i1 %36, label %37, label %42

37:                                               ; preds = %.lr.ph
  %38 = getelementptr inbounds nuw i8, ptr %30, i64 136
  %39 = load double, ptr %38, align 8, !tbaa !151
  %40 = fadd double %.059, %39
  %41 = fcmp ogt double %.06178, %40
  %.061. = select i1 %41, double %.06178, double %40
  br label %42

42:                                               ; preds = %37, %.lr.ph
  %.162 = phi double [ %.061., %37 ], [ %.06178, %.lr.ph ]
  %43 = getelementptr inbounds nuw i8, ptr %30, i64 336
  %44 = load i32, ptr %43, align 8, !tbaa !35
  %45 = getelementptr inbounds nuw i8, ptr %33, i64 336
  %46 = load i32, ptr %45, align 8, !tbaa !35
  %47 = icmp eq i32 %44, %46
  br i1 %47, label %48, label %53

48:                                               ; preds = %42
  %49 = getelementptr inbounds nuw i8, ptr %30, i64 144
  %50 = load double, ptr %49, align 8, !tbaa !150
  %51 = fadd double %.059, %50
  %52 = fcmp ogt double %.06377, %51
  %.063. = select i1 %52, double %.06377, double %51
  br label %53

53:                                               ; preds = %42, %48
  %.164 = phi double [ %.063., %48 ], [ %.06377, %42 ]
  %indvars.iv.next = add nuw nsw i64 %indvars.iv, 1
  %54 = getelementptr inbounds nuw i8, ptr %33, i64 236
  %55 = load i32, ptr %54, align 4, !tbaa !112
  %56 = sext i32 %55 to i64
  %.not.not = icmp slt i64 %indvars.iv, %56
  br i1 %.not.not, label %.lr.ph, label %._crit_edge, !llvm.loop !181

._crit_edge:                                      ; preds = %53, %13
  %.063.lcssa = phi double [ %19, %13 ], [ %.164, %53 ]
  %.061.lcssa = phi double [ %17, %13 ], [ %.162, %53 ]
  %.0.lcssa = phi i32 [ 0, %13 ], [ %28, %53 ]
  %57 = tail call ptr @dot_root(ptr noundef nonnull %0) #15
  %.not72 = icmp eq ptr %0, %57
  %.pre84 = load ptr, ptr %14, align 8, !tbaa !3
  br i1 %.not72, label %75, label %58

58:                                               ; preds = %._crit_edge
  %59 = getelementptr inbounds nuw i8, ptr %.pre84, i64 24
  %60 = load ptr, ptr %59, align 8, !tbaa !180
  %.not73 = icmp eq ptr %60, null
  br i1 %.not73, label %75, label %61

61:                                               ; preds = %58
  %62 = tail call ptr @agroot(ptr noundef nonnull %0) #15
  %63 = getelementptr inbounds nuw i8, ptr %62, i64 16
  %64 = load ptr, ptr %63, align 8, !tbaa !3
  %65 = getelementptr inbounds nuw i8, ptr %64, i64 132
  %66 = load i32, ptr %65, align 4, !tbaa !117
  %67 = and i32 %66, 1
  %.not74 = icmp eq i32 %67, 0
  %.pre = load ptr, ptr %14, align 8, !tbaa !3
  br i1 %.not74, label %68, label %75

68:                                               ; preds = %61
  %69 = getelementptr inbounds nuw i8, ptr %.pre, i64 72
  %70 = load double, ptr %69, align 8, !tbaa !182
  %71 = fadd double %.061.lcssa, %70
  %72 = getelementptr inbounds nuw i8, ptr %.pre, i64 104
  %73 = load double, ptr %72, align 8, !tbaa !182
  %74 = fadd double %.063.lcssa, %73
  br label %75

75:                                               ; preds = %61, %68, %58, %._crit_edge
  %76 = phi ptr [ %.pre, %61 ], [ %.pre, %68 ], [ %.pre84, %58 ], [ %.pre84, %._crit_edge ]
  %.265 = phi double [ %.063.lcssa, %61 ], [ %74, %68 ], [ %.063.lcssa, %58 ], [ %.063.lcssa, %._crit_edge ]
  %.2 = phi double [ %.061.lcssa, %61 ], [ %71, %68 ], [ %.061.lcssa, %58 ], [ %.061.lcssa, %._crit_edge ]
  %.1 = phi i32 [ 1, %61 ], [ 1, %68 ], [ %.0.lcssa, %58 ], [ %.0.lcssa, %._crit_edge ]
  %77 = getelementptr inbounds nuw i8, ptr %76, i64 136
  store double %.2, ptr %77, align 8, !tbaa !151
  %78 = getelementptr inbounds nuw i8, ptr %76, i64 144
  store double %.265, ptr %78, align 8, !tbaa !150
  %79 = tail call ptr @dot_root(ptr noundef nonnull %0) #15
  %.not75 = icmp eq ptr %0, %79
  br i1 %.not75, label %95, label %80

80:                                               ; preds = %75
  %81 = load ptr, ptr %14, align 8, !tbaa !3
  %82 = getelementptr inbounds nuw i8, ptr %81, i64 336
  %83 = load i32, ptr %82, align 8, !tbaa !35
  %84 = sext i32 %83 to i64
  %85 = getelementptr inbounds %struct.rank_t, ptr %6, i64 %84, i32 5
  %86 = load double, ptr %85, align 8, !tbaa !144
  %87 = fcmp ogt double %86, %.265
  %..265 = select i1 %87, double %86, double %.265
  store double %..265, ptr %85, align 8, !tbaa !144
  %88 = getelementptr inbounds nuw i8, ptr %81, i64 340
  %89 = load i32, ptr %88, align 4, !tbaa !36
  %90 = sext i32 %89 to i64
  %91 = getelementptr inbounds %struct.rank_t, ptr %6, i64 %90, i32 4
  %92 = load double, ptr %91, align 8, !tbaa !146
  %93 = fcmp ogt double %92, %.2
  %94 = select i1 %93, double %92, double %.2
  store double %94, ptr %91, align 8, !tbaa !146
  br label %95

95:                                               ; preds = %80, %75
  ret i32 %.1
}